; Function Attrs: mustprogress nounwind uwtable
define hidden noundef ptr @_ZNK5ciEnv11replay_nameEP7ciKlass(ptr nocapture noundef nonnull readonly align 8 dereferenceable(1265) %0, ptr noundef %1) local_unnamed_addr #0 align 2 {
  %3 = load ptr, ptr %1, align 8
  %4 = getelementptr inbounds i8, ptr %3, i64 80
  %5 = load ptr, ptr %4, align 8
  %6 = tail call noundef zeroext i1 %5(ptr noundef nonnull align 8 dereferenceable(24) %1) #18
  br i1 %6, label %7, label %15

7:                                                ; preds = %2
  %8 = getelementptr inbounds i8, ptr %1, i64 16
  %9 = load ptr, ptr %8, align 8
  %10 = tail call noundef ptr @_ZNK5ciEnv9dyno_nameEPK13InstanceKlass(ptr noundef nonnull readonly align 8 dereferenceable(1265) %0, ptr noundef %9)
  %.not.i = icmp eq ptr %10, null
  br i1 %.not.i, label %11, label %_ZNK5ciEnv11replay_nameEPK13InstanceKlass.exit

11:                                               ; preds = %7
  %12 = getelementptr inbounds i8, ptr %9, i64 24
  %13 = load ptr, ptr %12, align 8
  %14 = tail call noundef ptr @_ZNK6Symbol15as_quoted_asciiEv(ptr noundef nonnull align 4 dereferenceable(8) %13) #18
  br label %_ZNK5ciEnv11replay_nameEPK13InstanceKlass.exit

15:                                               ; preds = %2
  %16 = getelementptr inbounds i8, ptr %1, i64 32
  %17 = load ptr, ptr %16, align 8
  %18 = tail call noundef ptr @_ZN8ciSymbol15as_quoted_asciiEv(ptr noundef nonnull align 8 dereferenceable(28) %17) #18
  br label %_ZNK5ciEnv11replay_nameEPK13InstanceKlass.exit

_ZNK5ciEnv11replay_nameEPK13InstanceKlass.exit:   ; preds = %11, %7, %15
  %.0 = phi ptr [ %18, %15 ], [ %14, %11 ], [ %10, %7 ]
  ret ptr %.0
}